-----BEGIN CERTIFICATE-----
MIIBuTCCAWCgAwIBAgIJAMKQdUeOum1DMAoGCCqGSM49BAMCMDMxCzAJBgNVBAYT
AlVTMQ0wCwYDVQQKDAREVExBMRUwEwYDVQQDDAxEVExBIFJvb3QgQ0EwHhcNMTQw
ODAxMDg0MTE4WhcNNDYwMjE0MDg0MTE4WjAzMQswCQYDVQQGEwJVUzENMAsGA1UE
CgwERFRMQTEVMBMGA1UEAwwMRFRMQSBSb290IENBMFkwEwYHKoZIzj0CAQYIKoZI
zj0DAQcDQgAE8/Tp4HTMgLS10dXeXLvoh24eHPCwzFV1s3cPKzaWz6kmGpZimlVZ
wdSfR6vwZV9OQ8TeQPjDo6GBDSeVpvFdm6NdMFswHQYDVR0OBBYEFOGVkEZuR6ou
cQXUKhQeTwUakJ/dMB8GA1UdIwQYMBaAFOGVkEZuR6oucQXUKhQeTwUakJ/dMAwG
A1UdEwQFMAMBAf8wCwYDVR0PBAQDAgEGMAoGCCqGSM49BAMCA0cAMEQCIDLEChud
tJEIyoikDb6u9/78aWI29YQKujc076ZBV+m/AiBu4Fw9UXu5ufGF9cYfeMdi597f
n0BJVOI/8jSi4a+nxw==
-----END CERTIFICATE-----
Certificate:
    Data:
        Version: 3 (0x2)
        Serial Number: 4098 (0x1002)
    Signature Algorithm: ecdsa-with-SHA256
        Issuer: C=US, O=DTLA, CN=DTLA Root CA
        Validity
            Not Before: Aug  1 08:41:18 2014 GMT
            Not After : Feb 14 08:41:18 2046 GMT
        Subject: C=US, O=DTLA, CN=DTLA CVP2 SP CA
        Subject Public Key Info:
            Public Key Algorithm: id-ecPublicKey
                Public-Key: (256 bit)
                pub: 
                    04:ac:ec:d0:c3:89:9a:11:5d:62:ae:e0:59:c3:19:
                    af:05:65:e7:e8:50:18:6b:bf:23:88:2f:83:5a:27:
                    aa:d4:7b:81:d2:d5:60:2f:34:fa:42:0b:d6:75:7f:
                    af:e4:c4:88:55:e2:d6:bd:7c:54:92:82:16:d6:db:
                    5b:a9:ab:2b:01
                ASN1 OID: prime256v1
        X509v3 extensions:
            X509v3 Subject Key Identifier: 
                BF:61:85:47:10:05:06:93:1A:D4:64:D1:86:51:4D:47:68:49:E6:BD
            X509v3 Authority Key Identifier: 
                keyid:E1:95:90:46:6E:47:AA:2E:71:05:D4:2A:14:1E:4F:05:1A:90:9F:DD

            X509v3 Basic Constraints: 
                CA:TRUE
            X509v3 Key Usage: 
                Certificate Sign, CRL Sign
    Signature Algorithm: ecdsa-with-SHA256
         30:46:02:21:00:c4:23:05:b6:a5:c8:9d:67:65:32:f2:0e:c3:
         08:57:50:52:97:19:41:12:1c:e7:04:88:5c:61:fc:9a:15:2f:
         8a:02:21:00:c1:b9:6b:ec:f8:3c:c6:2a:6c:61:59:7e:15:a7:
         de:d2:10:ed:aa:89:b6:cb:d0:39:43:e7:84:0c:88:3d:5f:81
-----BEGIN CERTIFICATE-----
MIIBtzCCAVygAwIBAgICEAIwCgYIKoZIzj0EAwIwMzELMAkGA1UEBhMCVVMxDTAL
BgNVBAoMBERUTEExFTATBgNVBAMMDERUTEEgUm9vdCBDQTAeFw0xNDA4MDEwODQx
MThaFw00NjAyMTQwODQxMThaMDYxCzAJBgNVBAYTAlVTMQ0wCwYDVQQKDAREVExB
MRgwFgYDVQQDDA9EVExBIENWUDIgU1AgQ0EwWTATBgcqhkjOPQIBBggqhkjOPQMB
BwNCAASs7NDDiZoRXWKu4FnDGa8FZefoUBhrvyOIL4NaJ6rUe4HS1WAvNPpCC9Z1
f6/kxIhV4ta9fFSSghbW21upqysBo10wWzAdBgNVHQ4EFgQUv2GFRxAFBpMa1GTR
hlFNR2hJ5r0wHwYDVR0jBBgwFoAU4ZWQRm5Hqi5xBdQqFB5PBRqQn90wDAYDVR0T
BAUwAwEB/zALBgNVHQ8EBAMCAQYwCgYIKoZIzj0EAwIDSQAwRgIhAMQjBbalyJ1n
ZTLyDsMIV1BSlxlBEhznBIhcYfyaFS+KAiEAwblr7Pg8xipsYVl+Fafe0hDtqom2
y9A5Q+eEDIg9X4E=
-----END CERTIFICATE-----
